	.file	"RVO_fail.cpp"
	.section	.text._ZNSt16_Sp_counted_baseILN9__gnu_cxx12_Lock_policyE2EE10_M_destroyEv,"axG",@progbits,_ZNSt16_Sp_counted_baseILN9__gnu_cxx12_Lock_policyE2EE10_M_destroyEv,comdat
	.align 2
	.p2align 4,,15
	.weak	_ZNSt16_Sp_counted_baseILN9__gnu_cxx12_Lock_policyE2EE10_M_destroyEv
	.type	_ZNSt16_Sp_counted_baseILN9__gnu_cxx12_Lock_policyE2EE10_M_destroyEv, @function
_ZNSt16_Sp_counted_baseILN9__gnu_cxx12_Lock_policyE2EE10_M_destroyEv:
.LFB2887:
	.cfi_startproc
	testq	%rdi, %rdi
	je	.L1
	movq	(%rdi), %rax
	movq	8(%rax), %rax
	jmp	*%rax
	.p2align 4,,10
	.p2align 3
.L1:
	rep ret
	.cfi_endproc
.LFE2887:
	.size	_ZNSt16_Sp_counted_baseILN9__gnu_cxx12_Lock_policyE2EE10_M_destroyEv, .-_ZNSt16_Sp_counted_baseILN9__gnu_cxx12_Lock_policyE2EE10_M_destroyEv
	.section	.text._ZNSt16_Sp_counted_baseILN9__gnu_cxx12_Lock_policyE2EED2Ev,"axG",@progbits,_ZNSt16_Sp_counted_baseILN9__gnu_cxx12_Lock_policyE2EED5Ev,comdat
	.align 2
	.p2align 4,,15
	.weak	_ZNSt16_Sp_counted_baseILN9__gnu_cxx12_Lock_policyE2EED2Ev
	.type	_ZNSt16_Sp_counted_baseILN9__gnu_cxx12_Lock_policyE2EED2Ev, @function
_ZNSt16_Sp_counted_baseILN9__gnu_cxx12_Lock_policyE2EED2Ev:
.LFB2942:
	.cfi_startproc
	movq	$_ZTVSt16_Sp_counted_baseILN9__gnu_cxx12_Lock_policyE2EE+16, (%rdi)
	ret
	.cfi_endproc
.LFE2942:
	.size	_ZNSt16_Sp_counted_baseILN9__gnu_cxx12_Lock_policyE2EED2Ev, .-_ZNSt16_Sp_counted_baseILN9__gnu_cxx12_Lock_policyE2EED2Ev
	.weak	_ZNSt16_Sp_counted_baseILN9__gnu_cxx12_Lock_policyE2EED1Ev
	.set	_ZNSt16_Sp_counted_baseILN9__gnu_cxx12_Lock_policyE2EED1Ev,_ZNSt16_Sp_counted_baseILN9__gnu_cxx12_Lock_policyE2EED2Ev
	.text
	.align 2
	.p2align 4,,15
	.type	_ZNSt23_Sp_counted_ptr_inplaceINSt6thread5_ImplISt12_Bind_simpleIFZ4mainEUlvE_vEEEESaIS6_ELN9__gnu_cxx12_Lock_policyE2EED2Ev, @function
_ZNSt23_Sp_counted_ptr_inplaceINSt6thread5_ImplISt12_Bind_simpleIFZ4mainEUlvE_vEEEESaIS6_ELN9__gnu_cxx12_Lock_policyE2EED2Ev:
.LFB3102:
	.cfi_startproc
	movq	$_ZTVSt16_Sp_counted_baseILN9__gnu_cxx12_Lock_policyE2EE+16, (%rdi)
	ret
	.cfi_endproc
.LFE3102:
	.size	_ZNSt23_Sp_counted_ptr_inplaceINSt6thread5_ImplISt12_Bind_simpleIFZ4mainEUlvE_vEEEESaIS6_ELN9__gnu_cxx12_Lock_policyE2EED2Ev, .-_ZNSt23_Sp_counted_ptr_inplaceINSt6thread5_ImplISt12_Bind_simpleIFZ4mainEUlvE_vEEEESaIS6_ELN9__gnu_cxx12_Lock_policyE2EED2Ev
	.set	_ZNSt23_Sp_counted_ptr_inplaceINSt6thread5_ImplISt12_Bind_simpleIFZ4mainEUlvE_vEEEESaIS6_ELN9__gnu_cxx12_Lock_policyE2EED1Ev,_ZNSt23_Sp_counted_ptr_inplaceINSt6thread5_ImplISt12_Bind_simpleIFZ4mainEUlvE_vEEEESaIS6_ELN9__gnu_cxx12_Lock_policyE2EED2Ev
	.align 2
	.p2align 4,,15
	.type	_ZNSt23_Sp_counted_ptr_inplaceINSt6thread5_ImplISt12_Bind_simpleIFZ4mainEUlvE_vEEEESaIS6_ELN9__gnu_cxx12_Lock_policyE2EE10_M_disposeEv, @function
_ZNSt23_Sp_counted_ptr_inplaceINSt6thread5_ImplISt12_Bind_simpleIFZ4mainEUlvE_vEEEESaIS6_ELN9__gnu_cxx12_Lock_policyE2EE10_M_disposeEv:
.LFB3105:
	.cfi_startproc
	movq	16(%rdi), %rdi
	movq	(%rdi), %rax
	movq	(%rax), %rax
	jmp	*%rax
	.cfi_endproc
.LFE3105:
	.size	_ZNSt23_Sp_counted_ptr_inplaceINSt6thread5_ImplISt12_Bind_simpleIFZ4mainEUlvE_vEEEESaIS6_ELN9__gnu_cxx12_Lock_policyE2EE10_M_disposeEv, .-_ZNSt23_Sp_counted_ptr_inplaceINSt6thread5_ImplISt12_Bind_simpleIFZ4mainEUlvE_vEEEESaIS6_ELN9__gnu_cxx12_Lock_policyE2EE10_M_disposeEv
	.align 2
	.p2align 4,,15
	.type	_ZNSt23_Sp_counted_ptr_inplaceINSt6thread5_ImplISt12_Bind_simpleIFZ4mainEUlvE_vEEEESaIS6_ELN9__gnu_cxx12_Lock_policyE2EED0Ev, @function
_ZNSt23_Sp_counted_ptr_inplaceINSt6thread5_ImplISt12_Bind_simpleIFZ4mainEUlvE_vEEEESaIS6_ELN9__gnu_cxx12_Lock_policyE2EED0Ev:
.LFB3104:
	.cfi_startproc
	movq	$_ZTVSt16_Sp_counted_baseILN9__gnu_cxx12_Lock_policyE2EE+16, (%rdi)
	jmp	_ZdlPv
	.cfi_endproc
.LFE3104:
	.size	_ZNSt23_Sp_counted_ptr_inplaceINSt6thread5_ImplISt12_Bind_simpleIFZ4mainEUlvE_vEEEESaIS6_ELN9__gnu_cxx12_Lock_policyE2EED0Ev, .-_ZNSt23_Sp_counted_ptr_inplaceINSt6thread5_ImplISt12_Bind_simpleIFZ4mainEUlvE_vEEEESaIS6_ELN9__gnu_cxx12_Lock_policyE2EED0Ev
	.align 2
	.p2align 4,,15
	.type	_ZNSt23_Sp_counted_ptr_inplaceINSt6thread5_ImplISt12_Bind_simpleIFZ4mainEUlvE_vEEEESaIS6_ELN9__gnu_cxx12_Lock_policyE2EE10_M_destroyEv, @function
_ZNSt23_Sp_counted_ptr_inplaceINSt6thread5_ImplISt12_Bind_simpleIFZ4mainEUlvE_vEEEESaIS6_ELN9__gnu_cxx12_Lock_policyE2EE10_M_destroyEv:
.LFB3106:
	.cfi_startproc
	movq	$_ZTVSt16_Sp_counted_baseILN9__gnu_cxx12_Lock_policyE2EE+16, (%rdi)
	jmp	_ZdlPv
	.cfi_endproc
.LFE3106:
	.size	_ZNSt23_Sp_counted_ptr_inplaceINSt6thread5_ImplISt12_Bind_simpleIFZ4mainEUlvE_vEEEESaIS6_ELN9__gnu_cxx12_Lock_policyE2EE10_M_destroyEv, .-_ZNSt23_Sp_counted_ptr_inplaceINSt6thread5_ImplISt12_Bind_simpleIFZ4mainEUlvE_vEEEESaIS6_ELN9__gnu_cxx12_Lock_policyE2EE10_M_destroyEv
	.section	.text._ZNSt16_Sp_counted_baseILN9__gnu_cxx12_Lock_policyE2EED0Ev,"axG",@progbits,_ZNSt16_Sp_counted_baseILN9__gnu_cxx12_Lock_policyE2EED0Ev,comdat
	.align 2
	.p2align 4,,15
	.weak	_ZNSt16_Sp_counted_baseILN9__gnu_cxx12_Lock_policyE2EED0Ev
	.type	_ZNSt16_Sp_counted_baseILN9__gnu_cxx12_Lock_policyE2EED0Ev, @function
_ZNSt16_Sp_counted_baseILN9__gnu_cxx12_Lock_policyE2EED0Ev:
.LFB2944:
	.cfi_startproc
	movq	$_ZTVSt16_Sp_counted_baseILN9__gnu_cxx12_Lock_policyE2EE+16, (%rdi)
	jmp	_ZdlPv
	.cfi_endproc
.LFE2944:
	.size	_ZNSt16_Sp_counted_baseILN9__gnu_cxx12_Lock_policyE2EED0Ev, .-_ZNSt16_Sp_counted_baseILN9__gnu_cxx12_Lock_policyE2EED0Ev
	.text
	.align 2
	.p2align 4,,15
	.type	_ZNSt23_Sp_counted_ptr_inplaceINSt6thread5_ImplISt12_Bind_simpleIFZ4mainEUlvE_vEEEESaIS6_ELN9__gnu_cxx12_Lock_policyE2EE14_M_get_deleterERKSt9type_info, @function
_ZNSt23_Sp_counted_ptr_inplaceINSt6thread5_ImplISt12_Bind_simpleIFZ4mainEUlvE_vEEEESaIS6_ELN9__gnu_cxx12_Lock_policyE2EE14_M_get_deleterERKSt9type_info:
.LFB3107:
	.cfi_startproc
	movq	8(%rsi), %rsi
	movq	%rdi, %r8
	cmpq	$_ZTSSt19_Sp_make_shared_tag, %rsi
	je	.L11
	xorl	%eax, %eax
	cmpb	$42, (%rsi)
	je	.L18
	movl	$_ZTSSt19_Sp_make_shared_tag, %edi
	movl	$24, %ecx
	repz cmpsb
	je	.L11
.L18:
	rep ret
	.p2align 4,,10
	.p2align 3
.L11:
	leaq	24(%r8), %rax
	ret
	.cfi_endproc
.LFE3107:
	.size	_ZNSt23_Sp_counted_ptr_inplaceINSt6thread5_ImplISt12_Bind_simpleIFZ4mainEUlvE_vEEEESaIS6_ELN9__gnu_cxx12_Lock_policyE2EE14_M_get_deleterERKSt9type_info, .-_ZNSt23_Sp_counted_ptr_inplaceINSt6thread5_ImplISt12_Bind_simpleIFZ4mainEUlvE_vEEEESaIS6_ELN9__gnu_cxx12_Lock_policyE2EE14_M_get_deleterERKSt9type_info
	.section	.text._ZNSt6thread10_Impl_baseD2Ev,"axG",@progbits,_ZNSt6thread10_Impl_baseD5Ev,comdat
	.align 2
	.p2align 4,,15
	.weak	_ZNSt6thread10_Impl_baseD2Ev
	.type	_ZNSt6thread10_Impl_baseD2Ev, @function
_ZNSt6thread10_Impl_baseD2Ev:
.LFB1937:
	.cfi_startproc
	pushq	%rbp
	.cfi_def_cfa_offset 16
	.cfi_offset 6, -16
	pushq	%rbx
	.cfi_def_cfa_offset 24
	.cfi_offset 3, -24
	subq	$8, %rsp
	.cfi_def_cfa_offset 32
	movq	16(%rdi), %rbx
	movq	$_ZTVNSt6thread10_Impl_baseE+16, (%rdi)
	testq	%rbx, %rbx
	je	.L21
	movl	$_ZL28__gthrw___pthread_key_createPjPFvPvE, %ebp
	leaq	8(%rbx), %rax
	testq	%rbp, %rbp
	je	.L24
	movl	$-1, %edx
	lock xaddl	%edx, (%rax)
	movl	%edx, %eax
.L25:
	cmpl	$1, %eax
	je	.L30
.L21:
	addq	$8, %rsp
	.cfi_remember_state
	.cfi_def_cfa_offset 24
	popq	%rbx
	.cfi_def_cfa_offset 16
	popq	%rbp
	.cfi_def_cfa_offset 8
	ret
	.p2align 4,,10
	.p2align 3
.L30:
	.cfi_restore_state
	movq	(%rbx), %rax
	movq	%rbx, %rdi
	call	*16(%rax)
	testq	%rbp, %rbp
	leaq	12(%rbx), %rax
	je	.L27
	movl	$-1, %edx
	lock xaddl	%edx, (%rax)
	movl	%edx, %eax
.L28:
	cmpl	$1, %eax
	jne	.L21
	movq	(%rbx), %rax
	movq	%rbx, %rdi
	movq	24(%rax), %rax
	addq	$8, %rsp
	.cfi_remember_state
	.cfi_def_cfa_offset 24
	popq	%rbx
	.cfi_def_cfa_offset 16
	popq	%rbp
	.cfi_def_cfa_offset 8
	jmp	*%rax
.L24:
	.cfi_restore_state
	movl	8(%rbx), %eax
	leal	-1(%rax), %edx
	movl	%edx, 8(%rbx)
	jmp	.L25
.L27:
	movl	12(%rbx), %eax
	leal	-1(%rax), %edx
	movl	%edx, 12(%rbx)
	jmp	.L28
	.cfi_endproc
.LFE1937:
	.size	_ZNSt6thread10_Impl_baseD2Ev, .-_ZNSt6thread10_Impl_baseD2Ev
	.weak	_ZNSt6thread10_Impl_baseD1Ev
	.set	_ZNSt6thread10_Impl_baseD1Ev,_ZNSt6thread10_Impl_baseD2Ev
	.text
	.align 2
	.p2align 4,,15
	.type	_ZNSt6thread5_ImplISt12_Bind_simpleIFZ4mainEUlvE_vEEED2Ev, @function
_ZNSt6thread5_ImplISt12_Bind_simpleIFZ4mainEUlvE_vEEED2Ev:
.LFB3081:
	.cfi_startproc
	pushq	%rbp
	.cfi_def_cfa_offset 16
	.cfi_offset 6, -16
	pushq	%rbx
	.cfi_def_cfa_offset 24
	.cfi_offset 3, -24
	subq	$8, %rsp
	.cfi_def_cfa_offset 32
	movq	16(%rdi), %rbx
	movq	$_ZTVNSt6thread10_Impl_baseE+16, (%rdi)
	testq	%rbx, %rbx
	je	.L31
	movl	$_ZL28__gthrw___pthread_key_createPjPFvPvE, %ebp
	leaq	8(%rbx), %rax
	testq	%rbp, %rbp
	je	.L34
	movl	$-1, %edx
	lock xaddl	%edx, (%rax)
	movl	%edx, %eax
.L35:
	cmpl	$1, %eax
	je	.L40
.L31:
	addq	$8, %rsp
	.cfi_remember_state
	.cfi_def_cfa_offset 24
	popq	%rbx
	.cfi_def_cfa_offset 16
	popq	%rbp
	.cfi_def_cfa_offset 8
	ret
	.p2align 4,,10
	.p2align 3
.L40:
	.cfi_restore_state
	movq	(%rbx), %rax
	movq	%rbx, %rdi
	call	*16(%rax)
	testq	%rbp, %rbp
	leaq	12(%rbx), %rax
	je	.L37
	movl	$-1, %edx
	lock xaddl	%edx, (%rax)
	movl	%edx, %eax
.L38:
	cmpl	$1, %eax
	jne	.L31
	movq	(%rbx), %rax
	movq	%rbx, %rdi
	movq	24(%rax), %rax
	addq	$8, %rsp
	.cfi_remember_state
	.cfi_def_cfa_offset 24
	popq	%rbx
	.cfi_def_cfa_offset 16
	popq	%rbp
	.cfi_def_cfa_offset 8
	jmp	*%rax
.L34:
	.cfi_restore_state
	movl	8(%rbx), %eax
	leal	-1(%rax), %edx
	movl	%edx, 8(%rbx)
	jmp	.L35
.L37:
	movl	12(%rbx), %eax
	leal	-1(%rax), %edx
	movl	%edx, 12(%rbx)
	jmp	.L38
	.cfi_endproc
.LFE3081:
	.size	_ZNSt6thread5_ImplISt12_Bind_simpleIFZ4mainEUlvE_vEEED2Ev, .-_ZNSt6thread5_ImplISt12_Bind_simpleIFZ4mainEUlvE_vEEED2Ev
	.set	_ZNSt6thread5_ImplISt12_Bind_simpleIFZ4mainEUlvE_vEEED1Ev,_ZNSt6thread5_ImplISt12_Bind_simpleIFZ4mainEUlvE_vEEED2Ev
	.section	.text._ZNSt6thread10_Impl_baseD0Ev,"axG",@progbits,_ZNSt6thread10_Impl_baseD0Ev,comdat
	.align 2
	.p2align 4,,15
	.weak	_ZNSt6thread10_Impl_baseD0Ev
	.type	_ZNSt6thread10_Impl_baseD0Ev, @function
_ZNSt6thread10_Impl_baseD0Ev:
.LFB1939:
	.cfi_startproc
	pushq	%r12
	.cfi_def_cfa_offset 16
	.cfi_offset 12, -16
	pushq	%rbp
	.cfi_def_cfa_offset 24
	.cfi_offset 6, -24
	pushq	%rbx
	.cfi_def_cfa_offset 32
	.cfi_offset 3, -32
	movq	16(%rdi), %rbp
	movq	%rdi, %rbx
	movq	$_ZTVNSt6thread10_Impl_baseE+16, (%rdi)
	testq	%rbp, %rbp
	je	.L43
	movl	$_ZL28__gthrw___pthread_key_createPjPFvPvE, %r12d
	leaq	8(%rbp), %rax
	testq	%r12, %r12
	je	.L44
	movl	$-1, %edx
	lock xaddl	%edx, (%rax)
	movl	%edx, %eax
.L45:
	cmpl	$1, %eax
	je	.L50
.L43:
	movq	%rbx, %rdi
	popq	%rbx
	.cfi_remember_state
	.cfi_def_cfa_offset 24
	popq	%rbp
	.cfi_def_cfa_offset 16
	popq	%r12
	.cfi_def_cfa_offset 8
	jmp	_ZdlPv
	.p2align 4,,10
	.p2align 3
.L50:
	.cfi_restore_state
	movq	0(%rbp), %rax
	movq	%rbp, %rdi
	call	*16(%rax)
	testq	%r12, %r12
	leaq	12(%rbp), %rax
	je	.L47
	movl	$-1, %edx
	lock xaddl	%edx, (%rax)
	movl	%edx, %eax
.L48:
	cmpl	$1, %eax
	jne	.L43
	movq	0(%rbp), %rax
	movq	%rbp, %rdi
	call	*24(%rax)
	jmp	.L43
.L44:
	movl	8(%rbp), %eax
	leal	-1(%rax), %edx
	movl	%edx, 8(%rbp)
	jmp	.L45
.L47:
	movl	12(%rbp), %eax
	leal	-1(%rax), %edx
	movl	%edx, 12(%rbp)
	jmp	.L48
	.cfi_endproc
.LFE1939:
	.size	_ZNSt6thread10_Impl_baseD0Ev, .-_ZNSt6thread10_Impl_baseD0Ev
	.text
	.align 2
	.p2align 4,,15
	.type	_ZNSt6thread5_ImplISt12_Bind_simpleIFZ4mainEUlvE_vEEED0Ev, @function
_ZNSt6thread5_ImplISt12_Bind_simpleIFZ4mainEUlvE_vEEED0Ev:
.LFB3083:
	.cfi_startproc
	pushq	%r12
	.cfi_def_cfa_offset 16
	.cfi_offset 12, -16
	pushq	%rbp
	.cfi_def_cfa_offset 24
	.cfi_offset 6, -24
	pushq	%rbx
	.cfi_def_cfa_offset 32
	.cfi_offset 3, -32
	movq	16(%rdi), %rbp
	movq	%rdi, %rbx
	movq	$_ZTVNSt6thread10_Impl_baseE+16, (%rdi)
	testq	%rbp, %rbp
	je	.L53
	movl	$_ZL28__gthrw___pthread_key_createPjPFvPvE, %r12d
	leaq	8(%rbp), %rax
	testq	%r12, %r12
	je	.L54
	movl	$-1, %edx
	lock xaddl	%edx, (%rax)
	movl	%edx, %eax
.L55:
	cmpl	$1, %eax
	je	.L60
.L53:
	movq	%rbx, %rdi
	popq	%rbx
	.cfi_remember_state
	.cfi_def_cfa_offset 24
	popq	%rbp
	.cfi_def_cfa_offset 16
	popq	%r12
	.cfi_def_cfa_offset 8
	jmp	_ZdlPv
	.p2align 4,,10
	.p2align 3
.L60:
	.cfi_restore_state
	movq	0(%rbp), %rax
	movq	%rbp, %rdi
	call	*16(%rax)
	testq	%r12, %r12
	leaq	12(%rbp), %rax
	je	.L57
	movl	$-1, %edx
	lock xaddl	%edx, (%rax)
	movl	%edx, %eax
.L58:
	cmpl	$1, %eax
	jne	.L53
	movq	0(%rbp), %rax
	movq	%rbp, %rdi
	call	*24(%rax)
	jmp	.L53
.L54:
	movl	8(%rbp), %eax
	leal	-1(%rax), %edx
	movl	%edx, 8(%rbp)
	jmp	.L55
.L57:
	movl	12(%rbp), %eax
	leal	-1(%rax), %edx
	movl	%edx, 12(%rbp)
	jmp	.L58
	.cfi_endproc
.LFE3083:
	.size	_ZNSt6thread5_ImplISt12_Bind_simpleIFZ4mainEUlvE_vEEED0Ev, .-_ZNSt6thread5_ImplISt12_Bind_simpleIFZ4mainEUlvE_vEEED0Ev
	.section	.text._ZNSt16_Sp_counted_baseILN9__gnu_cxx12_Lock_policyE2EE10_M_releaseEv,"axG",@progbits,_ZNSt16_Sp_counted_baseILN9__gnu_cxx12_Lock_policyE2EE10_M_releaseEv,comdat
	.align 2
	.p2align 4,,15
	.weak	_ZNSt16_Sp_counted_baseILN9__gnu_cxx12_Lock_policyE2EE10_M_releaseEv
	.type	_ZNSt16_Sp_counted_baseILN9__gnu_cxx12_Lock_policyE2EE10_M_releaseEv, @function
_ZNSt16_Sp_counted_baseILN9__gnu_cxx12_Lock_policyE2EE10_M_releaseEv:
.LFB2801:
	.cfi_startproc
	pushq	%rbp
	.cfi_def_cfa_offset 16
	.cfi_offset 6, -16
	movl	$_ZL28__gthrw___pthread_key_createPjPFvPvE, %ebp
	leaq	8(%rdi), %rax
	pushq	%rbx
	.cfi_def_cfa_offset 24
	.cfi_offset 3, -24
	movq	%rdi, %rbx
	subq	$8, %rsp
	.cfi_def_cfa_offset 32
	testq	%rbp, %rbp
	je	.L62
	movl	$-1, %edx
	lock xaddl	%edx, (%rax)
	movl	%edx, %eax
.L63:
	cmpl	$1, %eax
	je	.L70
.L61:
	addq	$8, %rsp
	.cfi_remember_state
	.cfi_def_cfa_offset 24
	popq	%rbx
	.cfi_def_cfa_offset 16
	popq	%rbp
	.cfi_def_cfa_offset 8
	ret
	.p2align 4,,10
	.p2align 3
.L70:
	.cfi_restore_state
	movq	(%rbx), %rax
	movq	%rbx, %rdi
	call	*16(%rax)
	testq	%rbp, %rbp
	leaq	12(%rbx), %rax
	je	.L66
	movl	$-1, %edx
	lock xaddl	%edx, (%rax)
	movl	%edx, %eax
.L67:
	cmpl	$1, %eax
	jne	.L61
	movq	(%rbx), %rax
	movq	%rbx, %rdi
	movq	24(%rax), %rax
	addq	$8, %rsp
	.cfi_remember_state
	.cfi_def_cfa_offset 24
	popq	%rbx
	.cfi_def_cfa_offset 16
	popq	%rbp
	.cfi_def_cfa_offset 8
	jmp	*%rax
.L62:
	.cfi_restore_state
	movl	8(%rdi), %eax
	leal	-1(%rax), %edx
	movl	%edx, 8(%rdi)
	jmp	.L63
.L66:
	movl	12(%rbx), %eax
	leal	-1(%rax), %edx
	movl	%edx, 12(%rbx)
	jmp	.L67
	.cfi_endproc
.LFE2801:
	.size	_ZNSt16_Sp_counted_baseILN9__gnu_cxx12_Lock_policyE2EE10_M_releaseEv, .-_ZNSt16_Sp_counted_baseILN9__gnu_cxx12_Lock_policyE2EE10_M_releaseEv
	.section	.text.startup,"ax",@progbits
	.p2align 4,,15
	.globl	main
	.type	main, @function
main:
.LFB2644:
	.cfi_startproc
	.cfi_personality 0x3,__gxx_personality_v0
	.cfi_lsda 0x3,.LLSDA2644
	pushq	%r13
	.cfi_def_cfa_offset 16
	.cfi_offset 13, -16
	movl	$10, %ecx
	xorl	%eax, %eax
	movl	$_ZL28__gthrw___pthread_key_createPjPFvPvE, %r13d
	pushq	%r12
	.cfi_def_cfa_offset 24
	.cfi_offset 12, -24
	pushq	%rbp
	.cfi_def_cfa_offset 32
	.cfi_offset 6, -32
	pushq	%rbx
	.cfi_def_cfa_offset 40
	.cfi_offset 3, -40
	subq	$120, %rsp
	.cfi_def_cfa_offset 160
	leaq	32(%rsp), %r12
	movq	%r12, %rdi
	movq	%r12, %rbp
	rep stosq
	jmp	.L83
	.p2align 4,,10
	.p2align 3
.L78:
	cmpq	$0, 0(%rbp)
	jne	.L87
	movq	(%rsp), %rax
	addq	$8, %rbp
	movq	%rax, -8(%rbp)
	leaq	112(%rsp), %rax
	cmpq	%rbp, %rax
	je	.L105
.L83:
	movl	$56, %edi
	movq	$0, (%rsp)
.LEHB0:
	call	_Znwm
.LEHE0:
	testq	%rax, %rax
	movq	%rax, %rbx
	je	.L92
	movl	$1, 8(%rax)
	movl	$1, 12(%rax)
	leaq	24(%rax), %rax
	movq	$_ZTVSt23_Sp_counted_ptr_inplaceINSt6thread5_ImplISt12_Bind_simpleIFZ4mainEUlvE_vEEEESaIS6_ELN9__gnu_cxx12_Lock_policyE2EE+16, -24(%rax)
	movl	$_ZTISt19_Sp_make_shared_tag, %esi
	movq	$0, 32(%rbx)
	movq	%rax, 16(%rbx)
	movq	$0, 40(%rbx)
	movq	%rbx, %rdi
	movq	$_ZTVNSt6thread5_ImplISt12_Bind_simpleIFZ4mainEUlvE_vEEEE+16, 24(%rbx)
	call	_ZNSt23_Sp_counted_ptr_inplaceINSt6thread5_ImplISt12_Bind_simpleIFZ4mainEUlvE_vEEEESaIS6_ELN9__gnu_cxx12_Lock_policyE2EE14_M_get_deleterERKSt9type_info
.L72:
	leaq	16(%rsp), %rsi
	movq	%rsp, %rdi
	movq	%rax, 16(%rsp)
	movq	%rbx, 24(%rsp)
.LEHB1:
	call	_ZNSt6thread15_M_start_threadESt10shared_ptrINS_10_Impl_baseEE
.LEHE1:
	movq	24(%rsp), %rbx
	testq	%rbx, %rbx
	je	.L78
	testq	%r13, %r13
	leaq	8(%rbx), %rax
	je	.L74
	movl	$-1, %edx
	lock xaddl	%edx, (%rax)
	movl	%edx, %eax
.L75:
	cmpl	$1, %eax
	jne	.L78
	movq	(%rbx), %rax
	movq	%rbx, %rdi
	call	*16(%rax)
	testq	%r13, %r13
	leaq	12(%rbx), %rax
	je	.L76
	movl	$-1, %edx
	lock xaddl	%edx, (%rax)
	movl	%edx, %eax
.L77:
	cmpl	$1, %eax
	jne	.L78
	movq	(%rbx), %rax
	movq	%rbx, %rdi
	call	*24(%rax)
	jmp	.L78
	.p2align 4,,10
	.p2align 3
.L92:
	xorl	%eax, %eax
	jmp	.L72
	.p2align 4,,10
	.p2align 3
.L105:
	leaq	16(%rsp), %rdi
	xorl	%esi, %esi
	movq	$2, 16(%rsp)
	movq	$0, 24(%rsp)
.LEHB2:
	call	nanosleep
	movq	%r12, %rbx
	.p2align 4,,10
	.p2align 3
.L85:
	movq	%rbx, %rdi
	call	_ZNSt6thread4joinEv
	leaq	112(%rsp), %rax
	addq	$8, %rbx
	cmpq	%rbx, %rax
	jne	.L85
	movq	sm(%rip), %rsi
	movl	$_ZSt4cout, %edi
	call	_ZNSo9_M_insertIxEERSoT_
	movq	%rax, %rdi
	call	_ZSt4endlIcSt11char_traitsIcEERSt13basic_ostreamIT_T0_ES6_
	movq	val(%rip), %rsi
	movl	$_ZSt4cout, %edi
	call	_ZNSo9_M_insertIxEERSoT_
	movq	%rax, %rdi
	call	_ZSt4endlIcSt11char_traitsIcEERSt13basic_ostreamIT_T0_ES6_
.LEHE2:
	cmpq	$0, 104(%rsp)
	jne	.L87
	cmpq	$0, 96(%rsp)
	jne	.L87
	cmpq	$0, 88(%rsp)
	jne	.L87
	cmpq	$0, 80(%rsp)
	jne	.L87
	cmpq	$0, 72(%rsp)
	jne	.L87
	cmpq	$0, 64(%rsp)
	jne	.L87
	cmpq	$0, 56(%rsp)
	jne	.L87
	cmpq	$0, 48(%rsp)
	jne	.L87
	cmpq	$0, 40(%rsp)
	jne	.L87
	cmpq	$0, 32(%rsp)
	jne	.L87
	addq	$120, %rsp
	.cfi_remember_state
	.cfi_def_cfa_offset 40
	xorl	%eax, %eax
	popq	%rbx
	.cfi_def_cfa_offset 32
	popq	%rbp
	.cfi_def_cfa_offset 24
	popq	%r12
	.cfi_def_cfa_offset 16
	popq	%r13
	.cfi_def_cfa_offset 8
	ret
.L87:
	.cfi_restore_state
	call	_ZSt9terminatev
.L74:
	movl	8(%rbx), %eax
	leal	-1(%rax), %edx
	movl	%edx, 8(%rbx)
	jmp	.L75
.L76:
	movl	12(%rbx), %eax
	leal	-1(%rax), %edx
	movl	%edx, 12(%rbx)
	jmp	.L77
.L94:
	movq	24(%rsp), %rdi
	movq	%rax, %rbx
	testq	%rdi, %rdi
	je	.L80
	call	_ZNSt16_Sp_counted_baseILN9__gnu_cxx12_Lock_policyE2EE10_M_releaseEv
.L80:
	movq	%rbx, %rax
.L81:
	leaq	112(%rsp), %rdx
.L88:
	subq	$8, %rdx
	cmpq	$0, (%rdx)
	jne	.L87
	cmpq	%r12, %rdx
	jne	.L88
	movq	%rax, %rdi
.LEHB3:
	call	_Unwind_Resume
.LEHE3:
.L93:
	.p2align 4,,2
	jmp	.L81
	.cfi_endproc
.LFE2644:
	.globl	__gxx_personality_v0
	.section	.gcc_except_table,"a",@progbits
.LLSDA2644:
	.byte	0xff
	.byte	0xff
	.byte	0x1
	.uleb128 .LLSDACSE2644-.LLSDACSB2644
.LLSDACSB2644:
	.uleb128 .LEHB0-.LFB2644
	.uleb128 .LEHE0-.LEHB0
	.uleb128 .L93-.LFB2644
	.uleb128 0
	.uleb128 .LEHB1-.LFB2644
	.uleb128 .LEHE1-.LEHB1
	.uleb128 .L94-.LFB2644
	.uleb128 0
	.uleb128 .LEHB2-.LFB2644
	.uleb128 .LEHE2-.LEHB2
	.uleb128 .L93-.LFB2644
	.uleb128 0
	.uleb128 .LEHB3-.LFB2644
	.uleb128 .LEHE3-.LEHB3
	.uleb128 0
	.uleb128 0
.LLSDACSE2644:
	.section	.text.startup
	.size	main, .-main
	.section	.text._ZNSt6vectorIiSaIiEE19_M_emplace_back_auxIIRKiEEEvDpOT_,"axG",@progbits,_ZNSt6vectorIiSaIiEE19_M_emplace_back_auxIIRKiEEEvDpOT_,comdat
	.align 2
	.p2align 4,,15
	.weak	_ZNSt6vectorIiSaIiEE19_M_emplace_back_auxIIRKiEEEvDpOT_
	.type	_ZNSt6vectorIiSaIiEE19_M_emplace_back_auxIIRKiEEEvDpOT_, @function
_ZNSt6vectorIiSaIiEE19_M_emplace_back_auxIIRKiEEEvDpOT_:
.LFB2813:
	.cfi_startproc
	pushq	%r13
	.cfi_def_cfa_offset 16
	.cfi_offset 13, -16
	pushq	%r12
	.cfi_def_cfa_offset 24
	.cfi_offset 12, -24
	movl	$4, %r12d
	pushq	%rbp
	.cfi_def_cfa_offset 32
	.cfi_offset 6, -32
	pushq	%rbx
	.cfi_def_cfa_offset 40
	.cfi_offset 3, -40
	movq	%rdi, %rbx
	subq	$24, %rsp
	.cfi_def_cfa_offset 64
	movq	8(%rdi), %rdx
	subq	(%rdi), %rdx
	sarq	$2, %rdx
	testq	%rdx, %rdx
	jne	.L125
.L108:
	movq	%r12, %rdi
	movq	%rsi, 8(%rsp)
	call	_Znwm
	movq	(%rbx), %rcx
	movq	%rax, %rbp
	movq	8(%rbx), %rax
	movq	8(%rsp), %rsi
	movq	%rbp, %r13
	subq	%rcx, %rax
	sarq	$2, %rax
	movl	(%rsi), %esi
	leaq	0(,%rax,4), %rdx
	addq	%rdx, %r13
	je	.L109
	movl	%esi, 0(%r13)
.L109:
	testq	%rax, %rax
	movq	%rcx, %rdi
	je	.L110
	movq	%rbp, %rdi
	movq	%rcx, %rsi
	call	memmove
	movq	(%rbx), %rdi
.L110:
	addq	$4, %r13
	testq	%rdi, %rdi
	je	.L111
	call	_ZdlPv
.L111:
	movq	%rbp, (%rbx)
	addq	%r12, %rbp
	movq	%r13, 8(%rbx)
	movq	%rbp, 16(%rbx)
	addq	$24, %rsp
	.cfi_remember_state
	.cfi_def_cfa_offset 40
	popq	%rbx
	.cfi_def_cfa_offset 32
	popq	%rbp
	.cfi_def_cfa_offset 24
	popq	%r12
	.cfi_def_cfa_offset 16
	popq	%r13
	.cfi_def_cfa_offset 8
	ret
	.p2align 4,,10
	.p2align 3
.L125:
	.cfi_restore_state
	leaq	(%rdx,%rdx), %rax
	cmpq	%rax, %rdx
	jbe	.L126
	movq	$-4, %r12
	jmp	.L108
.L126:
	movabsq	$4611686018427387903, %rcx
	salq	$3, %rdx
	movq	$-4, %r12
	cmpq	%rcx, %rax
	cmovbe	%rdx, %r12
	jmp	.L108
	.cfi_endproc
.LFE2813:
	.size	_ZNSt6vectorIiSaIiEE19_M_emplace_back_auxIIRKiEEEvDpOT_, .-_ZNSt6vectorIiSaIiEE19_M_emplace_back_auxIIRKiEEEvDpOT_
	.weak	_ZNSt6vectorIiSaIiEE19_M_emplace_back_auxIJRKiEEEvDpOT_
	.set	_ZNSt6vectorIiSaIiEE19_M_emplace_back_auxIJRKiEEEvDpOT_,_ZNSt6vectorIiSaIiEE19_M_emplace_back_auxIIRKiEEEvDpOT_
	.text
	.p2align 4,,15
	.globl	_Z5func1RSt6vectorIiSaIiEE
	.type	_Z5func1RSt6vectorIiSaIiEE, @function
_Z5func1RSt6vectorIiSaIiEE:
.LFB2642:
	.cfi_startproc
	pushq	%r13
	.cfi_def_cfa_offset 16
	.cfi_offset 13, -16
	pushq	%r12
	.cfi_def_cfa_offset 24
	.cfi_offset 12, -24
	pushq	%rbp
	.cfi_def_cfa_offset 32
	.cfi_offset 6, -32
	pushq	%rbx
	.cfi_def_cfa_offset 40
	.cfi_offset 3, -40
	movq	%rdi, %rbx
	subq	$24, %rsp
	.cfi_def_cfa_offset 64
	movq	16(%rdi), %rcx
	movq	(%rdi), %rbp
	movq	%rcx, %rax
	subq	%rbp, %rax
	cmpq	$3999999, %rax
	jbe	.L128
	movq	8(%rdi), %rax
.L129:
	movl	$1000000, %ebp
	jmp	.L137
	.p2align 4,,10
	.p2align 3
.L145:
	testq	%rax, %rax
	je	.L134
	movl	%edx, (%rax)
.L134:
	addq	$4, %rax
	movq	%rax, 8(%rbx)
.L135:
	movl	indx(%rip), %ecx
	movl	$1717986919, %edx
	addl	$1, %ecx
	movl	%ecx, %eax
	imull	%edx
	movl	%ecx, %eax
	sarl	$31, %eax
	sarl	$2, %edx
	subl	%eax, %edx
	leal	(%rdx,%rdx,4), %eax
	addl	%eax, %eax
	subl	%eax, %ecx
	subl	$1, %ebp
	movl	%ecx, indx(%rip)
	je	.L127
	movq	8(%rbx), %rax
	movq	16(%rbx), %rcx
.L137:
	movslq	indx(%rip), %rdx
	cmpq	%rax, %rcx
	movl	Data(,%rdx,4), %edx
	movl	%edx, 12(%rsp)
	jne	.L145
	leaq	12(%rsp), %rsi
	movq	%rbx, %rdi
	call	_ZNSt6vectorIiSaIiEE19_M_emplace_back_auxIIRKiEEEvDpOT_
	jmp	.L135
	.p2align 4,,10
	.p2align 3
.L127:
	addq	$24, %rsp
	.cfi_remember_state
	.cfi_def_cfa_offset 40
	popq	%rbx
	.cfi_def_cfa_offset 32
	popq	%rbp
	.cfi_def_cfa_offset 24
	popq	%r12
	.cfi_def_cfa_offset 16
	popq	%r13
	.cfi_def_cfa_offset 8
	ret
.L128:
	.cfi_restore_state
	movq	8(%rdi), %r12
	movl	$4000000, %edi
	call	_Znwm
	movq	%rax, %r13
	subq	%rbp, %r12
	sarq	$2, %r12
	testq	%r12, %r12
	je	.L131
	salq	$2, %r12
	movq	%rbp, %rsi
	movq	%rax, %rdi
	movq	%r12, %rdx
	call	memmove
.L131:
	movq	(%rbx), %rdi
	testq	%rdi, %rdi
	je	.L132
	call	_ZdlPv
.L132:
	leaq	0(%r13,%r12), %rax
	leaq	4000000(%r13), %rcx
	movq	%r13, (%rbx)
	movq	%rax, 8(%rbx)
	movq	%rcx, 16(%rbx)
	jmp	.L129
	.cfi_endproc
.LFE2642:
	.size	_Z5func1RSt6vectorIiSaIiEE, .-_Z5func1RSt6vectorIiSaIiEE
	.align 2
	.p2align 4,,15
	.type	_ZNSt6thread5_ImplISt12_Bind_simpleIFZ4mainEUlvE_vEEE6_M_runEv, @function
_ZNSt6thread5_ImplISt12_Bind_simpleIFZ4mainEUlvE_vEEE6_M_runEv:
.LFB3108:
	.cfi_startproc
	.cfi_personality 0x3,__gxx_personality_v0
	.cfi_lsda 0x3,.LLSDA3108
	pushq	%rbx
	.cfi_def_cfa_offset 16
	.cfi_offset 3, -16
	subq	$48, %rsp
	.cfi_def_cfa_offset 64
	call	_ZNSt6chrono3_V212system_clock3nowEv
	leaq	16(%rsp), %rdi
	movq	%rax, %rbx
	movq	$0, 16(%rsp)
	movq	$0, 24(%rsp)
	movq	$0, 32(%rsp)
.LEHB4:
	call	_Z5func1RSt6vectorIiSaIiEE
.LEHE4:
	movq	16(%rsp), %rdx
	movq	24(%rsp), %r9
	cmpq	%r9, %rdx
	je	.L160
	leaq	4(%rdx), %rcx
	movq	%rdx, %rsi
	movq	%r9, %r8
	andl	$15, %esi
	movq	sm(%rip), %rax
	subq	%rcx, %r8
	shrq	$2, %rsi
	shrq	$2, %r8
	negq	%rsi
	addq	$1, %r8
	andl	$3, %esi
	cmpq	%r8, %rsi
	movq	%r8, %rdi
	cmova	%r8, %rsi
	cmpq	$6, %r8
	ja	.L183
.L150:
	movslq	(%rdx), %rsi
	addq	%rsi, %rax
	cmpq	$1, %rdi
	jbe	.L152
	movslq	4(%rdx), %rcx
	addq	%rcx, %rax
	cmpq	$2, %rdi
	leaq	8(%rdx), %rcx
	jbe	.L152
	movslq	8(%rdx), %rcx
	addq	%rcx, %rax
	cmpq	$3, %rdi
	leaq	12(%rdx), %rcx
	jbe	.L152
	movslq	12(%rdx), %rcx
	addq	%rcx, %rax
	cmpq	$4, %rdi
	leaq	16(%rdx), %rcx
	jbe	.L152
	movslq	16(%rdx), %rcx
	addq	%rcx, %rax
	cmpq	$5, %rdi
	leaq	20(%rdx), %rcx
	jbe	.L152
	movslq	20(%rdx), %rsi
	leaq	24(%rdx), %rcx
	addq	%rsi, %rax
.L152:
	cmpq	%rdi, %r8
	movq	%rax, %rsi
	je	.L153
.L151:
	subq	%rdi, %r8
	movq	%r8, %r10
	shrq	$2, %r10
	leaq	0(,%r10,4), %r11
	testq	%r11, %r11
	je	.L154
	pxor	%xmm0, %xmm0
	leaq	(%rdx,%rdi,4), %rsi
	pxor	%xmm4, %xmm4
	xorl	%edx, %edx
.L161:
	movdqa	(%rsi), %xmm1
	addq	$1, %rdx
	movdqa	%xmm4, %xmm2
	addq	$16, %rsi
	movdqa	%xmm1, %xmm5
	cmpq	%rdx, %r10
	pcmpgtd	%xmm1, %xmm2
	punpckldq	%xmm2, %xmm5
	punpckhdq	%xmm2, %xmm1
	paddq	%xmm5, %xmm0
	paddq	%xmm1, %xmm0
	ja	.L161
	movdqa	%xmm0, %xmm6
	leaq	(%rcx,%r11,4), %rcx
	psrldq	$8, %xmm6
	paddq	%xmm6, %xmm0
	movq	%xmm0, 8(%rsp)
	addq	8(%rsp), %rax
	cmpq	%r11, %r8
	movq	%rax, %rsi
	je	.L153
.L154:
	movslq	(%rcx), %rsi
	leaq	4(%rcx), %rdx
	addq	%rax, %rsi
	cmpq	%rdx, %r9
	je	.L153
	movslq	4(%rcx), %rax
	addq	%rax, %rsi
	leaq	8(%rcx), %rax
	cmpq	%rax, %r9
	je	.L153
	movslq	8(%rcx), %rax
	addq	%rax, %rsi
.L153:
	movq	%rsi, sm(%rip)
.L160:
	call	_ZNSt6chrono3_V212system_clock3nowEv
	movq	16(%rsp), %rdi
	subq	%rbx, %rax
	addq	%rax, val(%rip)
	testq	%rdi, %rdi
	je	.L146
	call	_ZdlPv
.L146:
	addq	$48, %rsp
	.cfi_remember_state
	.cfi_def_cfa_offset 16
	popq	%rbx
	.cfi_def_cfa_offset 8
	ret
	.p2align 4,,10
	.p2align 3
.L183:
	.cfi_restore_state
	testq	%rsi, %rsi
	jne	.L184
	xorl	%edi, %edi
	movq	%rdx, %rcx
	jmp	.L151
.L184:
	movq	%rsi, %rdi
	jmp	.L150
.L174:
	movq	16(%rsp), %rdi
	movq	%rax, %rbx
	testq	%rdi, %rdi
	je	.L163
	call	_ZdlPv
.L163:
	movq	%rbx, %rdi
.LEHB5:
	call	_Unwind_Resume
.LEHE5:
	.cfi_endproc
.LFE3108:
	.section	.gcc_except_table
.LLSDA3108:
	.byte	0xff
	.byte	0xff
	.byte	0x1
	.uleb128 .LLSDACSE3108-.LLSDACSB3108
.LLSDACSB3108:
	.uleb128 .LEHB4-.LFB3108
	.uleb128 .LEHE4-.LEHB4
	.uleb128 .L174-.LFB3108
	.uleb128 0
	.uleb128 .LEHB5-.LFB3108
	.uleb128 .LEHE5-.LEHB5
	.uleb128 0
	.uleb128 0
.LLSDACSE3108:
	.text
	.size	_ZNSt6thread5_ImplISt12_Bind_simpleIFZ4mainEUlvE_vEEE6_M_runEv, .-_ZNSt6thread5_ImplISt12_Bind_simpleIFZ4mainEUlvE_vEEE6_M_runEv
	.section	.text.startup
	.p2align 4,,15
	.type	_GLOBAL__sub_I_sm, @function
_GLOBAL__sub_I_sm:
.LFB3119:
	.cfi_startproc
	subq	$8, %rsp
	.cfi_def_cfa_offset 16
	movl	$_ZStL8__ioinit, %edi
	call	_ZNSt8ios_base4InitC1Ev
	movl	$__dso_handle, %edx
	movl	$_ZStL8__ioinit, %esi
	movl	$_ZNSt8ios_base4InitD1Ev, %edi
	addq	$8, %rsp
	.cfi_def_cfa_offset 8
	jmp	__cxa_atexit
	.cfi_endproc
.LFE3119:
	.size	_GLOBAL__sub_I_sm, .-_GLOBAL__sub_I_sm
	.section	.init_array,"aw"
	.align 8
	.quad	_GLOBAL__sub_I_sm
	.weak	_ZTISt11_Mutex_baseILN9__gnu_cxx12_Lock_policyE2EE
	.section	.rodata._ZTISt11_Mutex_baseILN9__gnu_cxx12_Lock_policyE2EE,"aG",@progbits,_ZTISt11_Mutex_baseILN9__gnu_cxx12_Lock_policyE2EE,comdat
	.align 16
	.type	_ZTISt11_Mutex_baseILN9__gnu_cxx12_Lock_policyE2EE, @object
	.size	_ZTISt11_Mutex_baseILN9__gnu_cxx12_Lock_policyE2EE, 16
_ZTISt11_Mutex_baseILN9__gnu_cxx12_Lock_policyE2EE:
	.quad	_ZTVN10__cxxabiv117__class_type_infoE+16
	.quad	_ZTSSt11_Mutex_baseILN9__gnu_cxx12_Lock_policyE2EE
	.weak	_ZTSSt11_Mutex_baseILN9__gnu_cxx12_Lock_policyE2EE
	.section	.rodata._ZTSSt11_Mutex_baseILN9__gnu_cxx12_Lock_policyE2EE,"aG",@progbits,_ZTSSt11_Mutex_baseILN9__gnu_cxx12_Lock_policyE2EE,comdat
	.align 32
	.type	_ZTSSt11_Mutex_baseILN9__gnu_cxx12_Lock_policyE2EE, @object
	.size	_ZTSSt11_Mutex_baseILN9__gnu_cxx12_Lock_policyE2EE, 47
_ZTSSt11_Mutex_baseILN9__gnu_cxx12_Lock_policyE2EE:
	.string	"St11_Mutex_baseILN9__gnu_cxx12_Lock_policyE2EE"
	.section	.rodata
	.align 32
	.type	_ZTSNSt6thread5_ImplISt12_Bind_simpleIFZ4mainEUlvE_vEEEE, @object
	.size	_ZTSNSt6thread5_ImplISt12_Bind_simpleIFZ4mainEUlvE_vEEEE, 54
_ZTSNSt6thread5_ImplISt12_Bind_simpleIFZ4mainEUlvE_vEEEE:
	.string	"*NSt6thread5_ImplISt12_Bind_simpleIFZ4mainEUlvE_vEEEE"
	.align 32
	.type	_ZTSSt23_Sp_counted_ptr_inplaceINSt6thread5_ImplISt12_Bind_simpleIFZ4mainEUlvE_vEEEESaIS6_ELN9__gnu_cxx12_Lock_policyE2EE, @object
	.size	_ZTSSt23_Sp_counted_ptr_inplaceINSt6thread5_ImplISt12_Bind_simpleIFZ4mainEUlvE_vEEEESaIS6_ELN9__gnu_cxx12_Lock_policyE2EE, 119
_ZTSSt23_Sp_counted_ptr_inplaceINSt6thread5_ImplISt12_Bind_simpleIFZ4mainEUlvE_vEEEESaIS6_ELN9__gnu_cxx12_Lock_policyE2EE:
	.string	"*St23_Sp_counted_ptr_inplaceINSt6thread5_ImplISt12_Bind_simpleIFZ4mainEUlvE_vEEEESaIS6_ELN9__gnu_cxx12_Lock_policyE2EE"
	.align 16
	.type	_ZTISt23_Sp_counted_ptr_inplaceINSt6thread5_ImplISt12_Bind_simpleIFZ4mainEUlvE_vEEEESaIS6_ELN9__gnu_cxx12_Lock_policyE2EE, @object
	.size	_ZTISt23_Sp_counted_ptr_inplaceINSt6thread5_ImplISt12_Bind_simpleIFZ4mainEUlvE_vEEEESaIS6_ELN9__gnu_cxx12_Lock_policyE2EE, 24
_ZTISt23_Sp_counted_ptr_inplaceINSt6thread5_ImplISt12_Bind_simpleIFZ4mainEUlvE_vEEEESaIS6_ELN9__gnu_cxx12_Lock_policyE2EE:
	.quad	_ZTVN10__cxxabiv120__si_class_type_infoE+16
	.quad	_ZTSSt23_Sp_counted_ptr_inplaceINSt6thread5_ImplISt12_Bind_simpleIFZ4mainEUlvE_vEEEESaIS6_ELN9__gnu_cxx12_Lock_policyE2EE
	.quad	_ZTISt16_Sp_counted_baseILN9__gnu_cxx12_Lock_policyE2EE
	.align 16
	.type	_ZTINSt6thread5_ImplISt12_Bind_simpleIFZ4mainEUlvE_vEEEE, @object
	.size	_ZTINSt6thread5_ImplISt12_Bind_simpleIFZ4mainEUlvE_vEEEE, 24
_ZTINSt6thread5_ImplISt12_Bind_simpleIFZ4mainEUlvE_vEEEE:
	.quad	_ZTVN10__cxxabiv120__si_class_type_infoE+16
	.quad	_ZTSNSt6thread5_ImplISt12_Bind_simpleIFZ4mainEUlvE_vEEEE
	.quad	_ZTINSt6thread10_Impl_baseE
	.weak	_ZTISt16_Sp_counted_baseILN9__gnu_cxx12_Lock_policyE2EE
	.section	.rodata._ZTISt16_Sp_counted_baseILN9__gnu_cxx12_Lock_policyE2EE,"aG",@progbits,_ZTISt16_Sp_counted_baseILN9__gnu_cxx12_Lock_policyE2EE,comdat
	.align 16
	.type	_ZTISt16_Sp_counted_baseILN9__gnu_cxx12_Lock_policyE2EE, @object
	.size	_ZTISt16_Sp_counted_baseILN9__gnu_cxx12_Lock_policyE2EE, 24
_ZTISt16_Sp_counted_baseILN9__gnu_cxx12_Lock_policyE2EE:
	.quad	_ZTVN10__cxxabiv120__si_class_type_infoE+16
	.quad	_ZTSSt16_Sp_counted_baseILN9__gnu_cxx12_Lock_policyE2EE
	.quad	_ZTISt11_Mutex_baseILN9__gnu_cxx12_Lock_policyE2EE
	.weak	_ZTSSt16_Sp_counted_baseILN9__gnu_cxx12_Lock_policyE2EE
	.section	.rodata._ZTSSt16_Sp_counted_baseILN9__gnu_cxx12_Lock_policyE2EE,"aG",@progbits,_ZTSSt16_Sp_counted_baseILN9__gnu_cxx12_Lock_policyE2EE,comdat
	.align 32
	.type	_ZTSSt16_Sp_counted_baseILN9__gnu_cxx12_Lock_policyE2EE, @object
	.size	_ZTSSt16_Sp_counted_baseILN9__gnu_cxx12_Lock_policyE2EE, 52
_ZTSSt16_Sp_counted_baseILN9__gnu_cxx12_Lock_policyE2EE:
	.string	"St16_Sp_counted_baseILN9__gnu_cxx12_Lock_policyE2EE"
	.weak	_ZTINSt6thread10_Impl_baseE
	.section	.rodata._ZTINSt6thread10_Impl_baseE,"aG",@progbits,_ZTINSt6thread10_Impl_baseE,comdat
	.align 16
	.type	_ZTINSt6thread10_Impl_baseE, @object
	.size	_ZTINSt6thread10_Impl_baseE, 16
_ZTINSt6thread10_Impl_baseE:
	.quad	_ZTVN10__cxxabiv117__class_type_infoE+16
	.quad	_ZTSNSt6thread10_Impl_baseE
	.weak	_ZTSNSt6thread10_Impl_baseE
	.section	.rodata._ZTSNSt6thread10_Impl_baseE,"aG",@progbits,_ZTSNSt6thread10_Impl_baseE,comdat
	.align 16
	.type	_ZTSNSt6thread10_Impl_baseE, @object
	.size	_ZTSNSt6thread10_Impl_baseE, 24
_ZTSNSt6thread10_Impl_baseE:
	.string	"NSt6thread10_Impl_baseE"
	.weak	_ZTISt19_Sp_make_shared_tag
	.section	.rodata._ZTISt19_Sp_make_shared_tag,"aG",@progbits,_ZTISt19_Sp_make_shared_tag,comdat
	.align 16
	.type	_ZTISt19_Sp_make_shared_tag, @object
	.size	_ZTISt19_Sp_make_shared_tag, 16
_ZTISt19_Sp_make_shared_tag:
	.quad	_ZTVN10__cxxabiv117__class_type_infoE+16
	.quad	_ZTSSt19_Sp_make_shared_tag
	.weak	_ZTSSt19_Sp_make_shared_tag
	.section	.rodata._ZTSSt19_Sp_make_shared_tag,"aG",@progbits,_ZTSSt19_Sp_make_shared_tag,comdat
	.align 16
	.type	_ZTSSt19_Sp_make_shared_tag, @object
	.size	_ZTSSt19_Sp_make_shared_tag, 24
_ZTSSt19_Sp_make_shared_tag:
	.string	"St19_Sp_make_shared_tag"
	.weak	_ZTVSt16_Sp_counted_baseILN9__gnu_cxx12_Lock_policyE2EE
	.section	.rodata._ZTVSt16_Sp_counted_baseILN9__gnu_cxx12_Lock_policyE2EE,"aG",@progbits,_ZTVSt16_Sp_counted_baseILN9__gnu_cxx12_Lock_policyE2EE,comdat
	.align 32
	.type	_ZTVSt16_Sp_counted_baseILN9__gnu_cxx12_Lock_policyE2EE, @object
	.size	_ZTVSt16_Sp_counted_baseILN9__gnu_cxx12_Lock_policyE2EE, 56
_ZTVSt16_Sp_counted_baseILN9__gnu_cxx12_Lock_policyE2EE:
	.quad	0
	.quad	_ZTISt16_Sp_counted_baseILN9__gnu_cxx12_Lock_policyE2EE
	.quad	_ZNSt16_Sp_counted_baseILN9__gnu_cxx12_Lock_policyE2EED1Ev
	.quad	_ZNSt16_Sp_counted_baseILN9__gnu_cxx12_Lock_policyE2EED0Ev
	.quad	__cxa_pure_virtual
	.quad	_ZNSt16_Sp_counted_baseILN9__gnu_cxx12_Lock_policyE2EE10_M_destroyEv
	.quad	__cxa_pure_virtual
	.weak	_ZTVNSt6thread10_Impl_baseE
	.section	.rodata._ZTVNSt6thread10_Impl_baseE,"aG",@progbits,_ZTVNSt6thread10_Impl_baseE,comdat
	.align 32
	.type	_ZTVNSt6thread10_Impl_baseE, @object
	.size	_ZTVNSt6thread10_Impl_baseE, 40
_ZTVNSt6thread10_Impl_baseE:
	.quad	0
	.quad	_ZTINSt6thread10_Impl_baseE
	.quad	_ZNSt6thread10_Impl_baseD1Ev
	.quad	_ZNSt6thread10_Impl_baseD0Ev
	.quad	__cxa_pure_virtual
	.section	.rodata
	.align 32
	.type	_ZTVNSt6thread5_ImplISt12_Bind_simpleIFZ4mainEUlvE_vEEEE, @object
	.size	_ZTVNSt6thread5_ImplISt12_Bind_simpleIFZ4mainEUlvE_vEEEE, 40
_ZTVNSt6thread5_ImplISt12_Bind_simpleIFZ4mainEUlvE_vEEEE:
	.quad	0
	.quad	_ZTINSt6thread5_ImplISt12_Bind_simpleIFZ4mainEUlvE_vEEEE
	.quad	_ZNSt6thread5_ImplISt12_Bind_simpleIFZ4mainEUlvE_vEEED1Ev
	.quad	_ZNSt6thread5_ImplISt12_Bind_simpleIFZ4mainEUlvE_vEEED0Ev
	.quad	_ZNSt6thread5_ImplISt12_Bind_simpleIFZ4mainEUlvE_vEEE6_M_runEv
	.align 32
	.type	_ZTVSt23_Sp_counted_ptr_inplaceINSt6thread5_ImplISt12_Bind_simpleIFZ4mainEUlvE_vEEEESaIS6_ELN9__gnu_cxx12_Lock_policyE2EE, @object
	.size	_ZTVSt23_Sp_counted_ptr_inplaceINSt6thread5_ImplISt12_Bind_simpleIFZ4mainEUlvE_vEEEESaIS6_ELN9__gnu_cxx12_Lock_policyE2EE, 56
_ZTVSt23_Sp_counted_ptr_inplaceINSt6thread5_ImplISt12_Bind_simpleIFZ4mainEUlvE_vEEEESaIS6_ELN9__gnu_cxx12_Lock_policyE2EE:
	.quad	0
	.quad	_ZTISt23_Sp_counted_ptr_inplaceINSt6thread5_ImplISt12_Bind_simpleIFZ4mainEUlvE_vEEEESaIS6_ELN9__gnu_cxx12_Lock_policyE2EE
	.quad	_ZNSt23_Sp_counted_ptr_inplaceINSt6thread5_ImplISt12_Bind_simpleIFZ4mainEUlvE_vEEEESaIS6_ELN9__gnu_cxx12_Lock_policyE2EED1Ev
	.quad	_ZNSt23_Sp_counted_ptr_inplaceINSt6thread5_ImplISt12_Bind_simpleIFZ4mainEUlvE_vEEEESaIS6_ELN9__gnu_cxx12_Lock_policyE2EED0Ev
	.quad	_ZNSt23_Sp_counted_ptr_inplaceINSt6thread5_ImplISt12_Bind_simpleIFZ4mainEUlvE_vEEEESaIS6_ELN9__gnu_cxx12_Lock_policyE2EE10_M_disposeEv
	.quad	_ZNSt23_Sp_counted_ptr_inplaceINSt6thread5_ImplISt12_Bind_simpleIFZ4mainEUlvE_vEEEESaIS6_ELN9__gnu_cxx12_Lock_policyE2EE10_M_destroyEv
	.quad	_ZNSt23_Sp_counted_ptr_inplaceINSt6thread5_ImplISt12_Bind_simpleIFZ4mainEUlvE_vEEEESaIS6_ELN9__gnu_cxx12_Lock_policyE2EE14_M_get_deleterERKSt9type_info
	.globl	indx
	.bss
	.align 4
	.type	indx, @object
	.size	indx, 4
indx:
	.zero	4
	.globl	Data
	.data
	.align 32
	.type	Data, @object
	.size	Data, 40
Data:
	.long	10
	.long	1
	.long	2
	.long	2
	.long	4
	.long	4
	.long	5
	.long	1
	.long	23
	.long	22
	.globl	val
	.bss
	.align 16
	.type	val, @object
	.size	val, 8
val:
	.zero	8
	.globl	sm
	.align 16
	.type	sm, @object
	.size	sm, 8
sm:
	.zero	8
	.local	_ZStL8__ioinit
	.comm	_ZStL8__ioinit,1,1
	.weakref	_ZL28__gthrw___pthread_key_createPjPFvPvE,__pthread_key_create
	.hidden	__dso_handle
	.ident	"GCC: (Ubuntu 4.8.2-19ubuntu1) 4.8.2"
	.section	.note.GNU-stack,"",@progbits
